target datalayout = "e-m:e-p270:32:32-p271:32:32-p272:64:64-i64:64-i128:128-f80:128-n8:16:32:64-S128"
target triple = "x86_64-pc-linux-gnu"

%struct.H5O_mdci_t = type { i64, i64 }
%struct.H5F_t = type { ptr, ptr, ptr, ptr, i32, ptr, i8, i8, ptr, i32 }
%struct.H5F_shared_t = type { ptr, ptr, ptr, i8, i32, i32, %struct.H5F_mtab_t, ptr, i8, i8, i64, i32, i32, i64, i64, ptr, ptr, %struct.H5AC_cache_config_t, %struct.H5AC_cache_image_config_t, i8, i8, ptr, i64, i32, i8, i64, i64, double, i64, i64, i64, i32, i32, i32, i8, i32, ptr, ptr, ptr, ptr, i8, i8, i8, i64, i64, ptr, ptr, i32, i64, i8, i32, i8, i64, i8, [13 x i32], [13 x i64], [13 x ptr], i8, i64, i64, [7 x i32], [7 x i32], %struct.H5F_blk_aggr_t, %struct.H5F_blk_aggr_t, i64, i64, %struct.H5F_meta_accum_t, i32, i32, [30 x ptr], %struct.H5F_object_flush_t, i8, ptr }
%struct.H5F_mtab_t = type { i32, i32, ptr }
%struct.H5AC_cache_config_t = type { i32, i8, i8, i8, [1025 x i8], i8, i8, i64, double, i64, i64, i64, i32, double, double, i8, i64, i32, double, double, i32, double, double, i8, i64, i32, i8, double, i64, i32 }
%struct.H5AC_cache_image_config_t = type { i32, i8, i8, i32 }
%struct.H5F_blk_aggr_t = type { i64, i64, i64, i64, i64 }
%struct.H5F_meta_accum_t = type { ptr, i64, i64, i64, i64, i64, i8 }
%struct.H5F_object_flush_t = type { ptr, ptr }

@.str.1 = private unnamed_addr constant [108 x i8] c"generated/home/dtcxzyw/WorkSpace/Projects/compilers/llvm-opt-benchmark/bench/hdf5/hdf5/src/H5Ocache_image.c\00", align 1
@H5E_OHDR_g = external global i64, align 8
@__func__.H5O__mdci_delete = private unnamed_addr constant [17 x i8] c"H5O__mdci_delete\00", align 1
@H5E_CACHE_g = external global i64, align 8
@H5E_CANTGET_g = external global i64, align 8
@.str.7 = private unnamed_addr constant [24 x i8] c"unable to get file size\00", align 1
@H5E_CANTFREE_g = external global i64, align 8
@.str.8 = private unnamed_addr constant [21 x i8] c"can't free MDC image\00", align 1
@.str.9 = private unnamed_addr constant [48 x i8] c"unable to free file space for cache image block\00", align 1

; Function Attrs: nounwind uwtable
define internal i32 @H5O__mdci_delete(ptr noundef %0, ptr noundef %1, ptr noundef %2) #0 {
  %4 = alloca ptr, align 8
  %5 = alloca ptr, align 8
  %6 = alloca ptr, align 8
  %7 = alloca ptr, align 8
  %8 = alloca i64, align 8
  %9 = alloca i32, align 4
  %10 = alloca i8, align 1
  store ptr %0, ptr %4, align 8
  store ptr %1, ptr %5, align 8
  store ptr %2, ptr %6, align 8
  %11 = load ptr, ptr %6, align 8
  store ptr %11, ptr %7, align 8
  store i32 0, ptr %9, align 4
  store i8 0, ptr %10, align 1
  %12 = load ptr, ptr %7, align 8
  %13 = getelementptr inbounds %struct.H5O_mdci_t, ptr %12, i32 0, i32 0
  %14 = load i64, ptr %13, align 8
  %15 = icmp ne i64 %14, -1
  br i1 %15, label %16, label %104

16:                                               ; preds = %3
  %17 = load ptr, ptr %4, align 8
  %18 = getelementptr inbounds %struct.H5F_t, ptr %17, i32 0, i32 2
  %19 = load ptr, ptr %18, align 8
  %20 = getelementptr inbounds %struct.H5F_shared_t, ptr %19, i32 0, i32 42
  %21 = load i8, ptr %20, align 2
  %22 = trunc i8 %21 to i1
  br i1 %22, label %23, label %77

23:                                               ; preds = %16
  %24 = load ptr, ptr %4, align 8
  %25 = getelementptr inbounds %struct.H5F_t, ptr %24, i32 0, i32 2
  %26 = load ptr, ptr %25, align 8
  %27 = getelementptr inbounds %struct.H5F_shared_t, ptr %26, i32 0, i32 0
  %28 = load ptr, ptr %27, align 8
  %29 = call i64 @H5FD_get_eoa(ptr noundef %28, i32 noundef 0)
  store i64 %29, ptr %8, align 8
  %30 = icmp eq i64 -1, %29
  br i1 %30, label %31, label %46

31:                                               ; preds = %23
  br label %32

32:                                               ; preds = %31
  br label %33

33:                                               ; preds = %32
  br label %34

34:                                               ; preds = %33
  %35 = load i64, ptr @H5E_CACHE_g, align 8
  %36 = load i64, ptr @H5E_CANTGET_g, align 8
  %37 = call i32 (ptr, ptr, i32, i64, i64, ptr, ...) @H5E_printf_stack(ptr noundef @.str.1, ptr noundef @__func__.H5O__mdci_delete, i32 noundef 277, i64 noundef %35, i64 noundef %36, ptr noundef @.str.7)
  br label %38

38:                                               ; preds = %34
  store i8 1, ptr %10, align 1
  %39 = load i8, ptr %10, align 1
  %40 = trunc i8 %39 to i1
  %41 = zext i1 %40 to i8
  store i8 %41, ptr %10, align 1
  br label %42

42:                                               ; preds = %38
  br label %43

43:                                               ; preds = %42
  store i32 -1, ptr %9, align 4
  br label %105

44:                                               ; No predecessors!
  br label %45

45:                                               ; preds = %44
  br label %46

46:                                               ; preds = %45, %23
  %47 = load ptr, ptr %4, align 8
  %48 = getelementptr inbounds %struct.H5F_t, ptr %47, i32 0, i32 2
  %49 = load ptr, ptr %48, align 8
  %50 = getelementptr inbounds %struct.H5F_shared_t, ptr %49, i32 0, i32 0
  %51 = load ptr, ptr %50, align 8
  %52 = load ptr, ptr %4, align 8
  %53 = load ptr, ptr %7, align 8
  %54 = getelementptr inbounds %struct.H5O_mdci_t, ptr %53, i32 0, i32 0
  %55 = load i64, ptr %54, align 8
  %56 = load ptr, ptr %7, align 8
  %57 = getelementptr inbounds %struct.H5O_mdci_t, ptr %56, i32 0, i32 1
  %58 = load i64, ptr %57, align 8
  %59 = call i32 @H5FD_free(ptr noundef %51, i32 noundef 1, ptr noundef %52, i64 noundef %55, i64 noundef %58)
  %60 = icmp slt i32 %59, 0
  br i1 %60, label %61, label %76

61:                                               ; preds = %46
  br label %62

62:                                               ; preds = %61
  br label %63

63:                                               ; preds = %62
  br label %64

64:                                               ; preds = %63
  %65 = load i64, ptr @H5E_CACHE_g, align 8
  %66 = load i64, ptr @H5E_CANTFREE_g, align 8
  %67 = call i32 (ptr, ptr, i32, i64, i64, ptr, ...) @H5E_printf_stack(ptr noundef @.str.1, ptr noundef @__func__.H5O__mdci_delete, i32 noundef 282, i64 noundef %65, i64 noundef %66, ptr noundef @.str.8)
  br label %68

68:                                               ; preds = %64
  store i8 1, ptr %10, align 1
  %69 = load i8, ptr %10, align 1
  %70 = trunc i8 %69 to i1
  %71 = zext i1 %70 to i8
  store i8 %71, ptr %10, align 1
  br label %72

72:                                               ; preds = %68
  br label %73

73:                                               ; preds = %72
  store i32 -1, ptr %9, align 4
  br label %105

74:                                               ; No predecessors!
  br label %75

75:                                               ; preds = %74
  br label %76

76:                                               ; preds = %75, %46
  br label %103

77:                                               ; preds = %16
  %78 = load ptr, ptr %4, align 8
  %79 = load ptr, ptr %7, align 8
  %80 = getelementptr inbounds %struct.H5O_mdci_t, ptr %79, i32 0, i32 0
  %81 = load i64, ptr %80, align 8
  %82 = load ptr, ptr %7, align 8
  %83 = getelementptr inbounds %struct.H5O_mdci_t, ptr %82, i32 0, i32 1
  %84 = load i64, ptr %83, align 8
  %85 = call i32 @H5MF_xfree(ptr noundef %78, i32 noundef 1, i64 noundef %81, i64 noundef %84)
  %86 = icmp slt i32 %85, 0
  br i1 %86, label %87, label %102

87:                                               ; preds = %77
  br label %88

88:                                               ; preds = %87
  br label %89

89:                                               ; preds = %88
  br label %90

90:                                               ; preds = %89
  %91 = load i64, ptr @H5E_OHDR_g, align 8
  %92 = load i64, ptr @H5E_CANTFREE_g, align 8
  %93 = call i32 (ptr, ptr, i32, i64, i64, ptr, ...) @H5E_printf_stack(ptr noundef @.str.1, ptr noundef @__func__.H5O__mdci_delete, i32 noundef 285, i64 noundef %91, i64 noundef %92, ptr noundef @.str.9)
  br label %94

94:                                               ; preds = %90
  store i8 1, ptr %10, align 1
  %95 = load i8, ptr %10, align 1
  %96 = trunc i8 %95 to i1
  %97 = zext i1 %96 to i8
  store i8 %97, ptr %10, align 1
  br label %98

98:                                               ; preds = %94
  br label %99

99:                                               ; preds = %98
  store i32 -1, ptr %9, align 4
  br label %105

100:                                              ; No predecessors!
  br label %101

101:                                              ; preds = %100
  br label %102

102:                                              ; preds = %101, %77
  br label %103

103:                                              ; preds = %102, %76
  br label %104

104:                                              ; preds = %103, %3
  br label %105

105:                                              ; preds = %104, %99, %73, %43
  %106 = load i32, ptr %9, align 4
  ret i32 %106
}