; Function Attrs: nounwind uwtable
define internal range(i32 -1, 1) i32 @H5O__mdci_delete(ptr noundef %0, ptr nocapture readnone %1, ptr nocapture noundef readonly %2) #0 {
  %4 = load i64, ptr %2, align 8
  %.not = icmp eq i64 %4, -1
  br i1 %.not, label %40, label %5

5:                                                ; preds = %3
  %6 = getelementptr inbounds i8, ptr %0, i64 16
  %7 = load ptr, ptr %6, align 8
  %8 = getelementptr inbounds i8, ptr %7, i64 1482
  %9 = load i8, ptr %8, align 2
  %10 = trunc i8 %9 to i1
  br i1 %10, label %11, label %31

11:                                               ; preds = %5
  %12 = load ptr, ptr %7, align 8
  %13 = tail call i64 @H5FD_get_eoa(ptr noundef %12, i32 noundef 0) #5
  %14 = icmp eq i64 %13, -1
  br i1 %14, label %15, label %19

15:                                               ; preds = %11
  %16 = load i64, ptr @H5E_CACHE_g, align 8
  %17 = load i64, ptr @H5E_CANTGET_g, align 8
  %18 = tail call i32 (ptr, ptr, i32, i64, i64, ptr, ...) @H5E_printf_stack(ptr noundef nonnull @.str.1, ptr noundef nonnull @__func__.H5O__mdci_delete, i32 noundef 277, i64 noundef %16, i64 noundef %17, ptr noundef nonnull @.str.7) #5
  br label %40

19:                                               ; preds = %11
  %20 = load ptr, ptr %6, align 8
  %21 = load ptr, ptr %20, align 8
  %22 = load i64, ptr %2, align 8
  %23 = getelementptr inbounds i8, ptr %2, i64 8
  %24 = load i64, ptr %23, align 8
  %25 = tail call i32 @H5FD_free(ptr noundef %21, i32 noundef 1, ptr noundef nonnull %0, i64 noundef %22, i64 noundef %24) #5
  %26 = icmp slt i32 %25, 0
  br i1 %26, label %27, label %40

27:                                               ; preds = %19
  %28 = load i64, ptr @H5E_CACHE_g, align 8
  %29 = load i64, ptr @H5E_CANTFREE_g, align 8
  %30 = tail call i32 (ptr, ptr, i32, i64, i64, ptr, ...) @H5E_printf_stack(ptr noundef nonnull @.str.1, ptr noundef nonnull @__func__.H5O__mdci_delete, i32 noundef 282, i64 noundef %28, i64 noundef %29, ptr noundef nonnull @.str.8) #5
  br label %40

31:                                               ; preds = %5
  %32 = getelementptr inbounds i8, ptr %2, i64 8
  %33 = load i64, ptr %32, align 8
  %34 = tail call i32 @H5MF_xfree(ptr noundef nonnull %0, i32 noundef 1, i64 noundef %4, i64 noundef %33) #5
  %35 = icmp slt i32 %34, 0
  br i1 %35, label %36, label %40

36:                                               ; preds = %31
  %37 = load i64, ptr @H5E_OHDR_g, align 8
  %38 = load i64, ptr @H5E_CANTFREE_g, align 8
  %39 = tail call i32 (ptr, ptr, i32, i64, i64, ptr, ...) @H5E_printf_stack(ptr noundef nonnull @.str.1, ptr noundef nonnull @__func__.H5O__mdci_delete, i32 noundef 285, i64 noundef %37, i64 noundef %38, ptr noundef nonnull @.str.9) #5
  br label %40

40:                                               ; preds = %3, %31, %19, %36, %27, %15
  %.0 = phi i32 [ -1, %15 ], [ -1, %27 ], [ 0, %19 ], [ -1, %36 ], [ 0, %31 ], [ 0, %3 ]
  ret i32 %.0
}